target datalayout = "e-m:e-p270:32:32-p271:32:32-p272:64:64-i64:64-i128:128-f80:128-n8:16:32:64-S128"
target triple = "x86_64-pc-linux-gnu"

; Function Attrs: nounwind null_pointer_is_valid sspstrong uwtable
define hidden i32 @ipv6_oat_hash(ptr noundef %0) #0 {
  %2 = alloca ptr, align 8
  %3 = alloca i32, align 4
  %4 = alloca ptr, align 8
  %5 = alloca i32, align 4
  %6 = alloca i32, align 4
  store ptr %0, ptr %2, align 8
  call void @llvm.lifetime.start.p0(i64 4, ptr %3) #16
  store i32 16, ptr %3, align 4
  call void @llvm.lifetime.start.p0(i64 8, ptr %4) #16
  %7 = load ptr, ptr %2, align 8
  store ptr %7, ptr %4, align 8
  call void @llvm.lifetime.start.p0(i64 4, ptr %5) #16
  store i32 0, ptr %5, align 4
  call void @llvm.lifetime.start.p0(i64 4, ptr %6) #16
  store i32 0, ptr %6, align 4
  br label %8

8:                                                ; preds = %29, %1
  %9 = load i32, ptr %6, align 4
  %10 = load i32, ptr %3, align 4
  %11 = icmp slt i32 %9, %10
  br i1 %11, label %12, label %32

12:                                               ; preds = %8
  %13 = load ptr, ptr %4, align 8
  %14 = load i32, ptr %6, align 4
  %15 = sext i32 %14 to i64
  %16 = getelementptr i8, ptr %13, i64 %15
  %17 = load i8, ptr %16, align 1
  %18 = zext i8 %17 to i32
  %19 = load i32, ptr %5, align 4
  %20 = add i32 %19, %18
  store i32 %20, ptr %5, align 4
  %21 = load i32, ptr %5, align 4
  %22 = shl i32 %21, 10
  %23 = load i32, ptr %5, align 4
  %24 = add i32 %23, %22
  store i32 %24, ptr %5, align 4
  %25 = load i32, ptr %5, align 4
  %26 = lshr i32 %25, 6
  %27 = load i32, ptr %5, align 4
  %28 = xor i32 %27, %26
  store i32 %28, ptr %5, align 4
  br label %29

29:                                               ; preds = %12
  %30 = load i32, ptr %6, align 4
  %31 = add i32 %30, 1
  store i32 %31, ptr %6, align 4
  br label %8, !llvm.loop !6

32:                                               ; preds = %8
  %33 = load i32, ptr %5, align 4
  %34 = shl i32 %33, 3
  %35 = load i32, ptr %5, align 4
  %36 = add i32 %35, %34
  store i32 %36, ptr %5, align 4
  %37 = load i32, ptr %5, align 4
  %38 = lshr i32 %37, 11
  %39 = load i32, ptr %5, align 4
  %40 = xor i32 %39, %38
  store i32 %40, ptr %5, align 4
  %41 = load i32, ptr %5, align 4
  %42 = shl i32 %41, 15
  %43 = load i32, ptr %5, align 4
  %44 = add i32 %43, %42
  store i32 %44, ptr %5, align 4
  %45 = load i32, ptr %5, align 4
  call void @llvm.lifetime.end.p0(i64 4, ptr %6) #16
  call void @llvm.lifetime.end.p0(i64 4, ptr %5) #16
  call void @llvm.lifetime.end.p0(i64 8, ptr %4) #16
  call void @llvm.lifetime.end.p0(i64 4, ptr %3) #16
  ret i32 %45
}