; Function Attrs: nofree norecurse nosync nounwind null_pointer_is_valid sspstrong memory(argmem: read) uwtable
define hidden i32 @ipv6_oat_hash(ptr noundef readonly captures(none) %0) #0 {
  br label %2

2:                                                ; preds = %1, %2
  %indvars.iv = phi i64 [ 0, %1 ], [ %indvars.iv.next, %2 ]
  %.01718 = phi i32 [ 0, %1 ], [ %9, %2 ]
  %3 = getelementptr i8, ptr %0, i64 %indvars.iv
  %4 = load i8, ptr %3, align 1
  %5 = zext i8 %4 to i32
  %6 = add i32 %.01718, %5
  %7 = mul i32 %6, 1025
  %8 = lshr i32 %7, 6
  %9 = xor i32 %8, %7
  %indvars.iv.next = add nuw nsw i64 %indvars.iv, 1
  %exitcond.not = icmp eq i64 %indvars.iv.next, 16
  br i1 %exitcond.not, label %10, label %2, !llvm.loop !6

10:                                               ; preds = %2
  %11 = mul i32 %9, 9
  %12 = lshr i32 %11, 11
  %13 = xor i32 %12, %11
  %14 = mul i32 %13, 32769
  ret i32 %14
}